target datalayout = "e-m:e-p270:32:32-p271:32:32-p272:64:64-i64:64-i128:128-f80:128-n8:16:32:64-S128"
target triple = "x86_64-pc-linux-gnu"

%struct.HashState = type { %struct.PlanState, ptr, ptr, ptr, i32, ptr, ptr, ptr }
%struct.PlanState = type { i32, ptr, ptr, ptr, ptr, ptr, ptr, ptr, ptr, ptr, ptr, ptr, ptr, ptr, ptr, ptr, ptr, ptr, i8, ptr, ptr, ptr, ptr, ptr, i8, i8, i8, i8, i8, i8, i8, i8 }
%struct.HashJoinTableData = type { i32, i32, i32, i32, i32, %union.anon, i8, ptr, i32, i32, ptr, i32, i32, i32, i32, i8, double, double, double, ptr, ptr, i64, i64, i64, i64, i64, ptr, ptr, ptr, ptr, ptr, ptr, ptr, ptr, i64 }
%union.anon = type { ptr }
%struct.HashInstrumentation = type { i32, i32, i32, i32, i64 }

; Function Attrs: nounwind uwtable
define dso_local void @ExecHashAccumInstrumentation(ptr noundef %0, ptr noundef %1) #0 {
  %3 = alloca ptr, align 8
  %4 = alloca ptr, align 8
  store ptr %0, ptr %3, align 8
  store ptr %1, ptr %4, align 8
  %5 = load ptr, ptr %3, align 8
  %6 = getelementptr inbounds nuw %struct.HashInstrumentation, ptr %5, i32 0, i32 0
  %7 = load i32, ptr %6, align 8
  %8 = load ptr, ptr %4, align 8
  %9 = getelementptr inbounds nuw %struct.HashJoinTableData, ptr %8, i32 0, i32 0
  %10 = load i32, ptr %9, align 8
  %11 = icmp sgt i32 %7, %10
  br i1 %11, label %12, label %16

12:                                               ; preds = %2
  %13 = load ptr, ptr %3, align 8
  %14 = getelementptr inbounds nuw %struct.HashInstrumentation, ptr %13, i32 0, i32 0
  %15 = load i32, ptr %14, align 8
  br label %20

16:                                               ; preds = %2
  %17 = load ptr, ptr %4, align 8
  %18 = getelementptr inbounds nuw %struct.HashJoinTableData, ptr %17, i32 0, i32 0
  %19 = load i32, ptr %18, align 8
  br label %20

20:                                               ; preds = %16, %12
  %21 = phi i32 [ %15, %12 ], [ %19, %16 ]
  %22 = load ptr, ptr %3, align 8
  %23 = getelementptr inbounds nuw %struct.HashInstrumentation, ptr %22, i32 0, i32 0
  store i32 %21, ptr %23, align 8
  %24 = load ptr, ptr %3, align 8
  %25 = getelementptr inbounds nuw %struct.HashInstrumentation, ptr %24, i32 0, i32 1
  %26 = load i32, ptr %25, align 4
  %27 = load ptr, ptr %4, align 8
  %28 = getelementptr inbounds nuw %struct.HashJoinTableData, ptr %27, i32 0, i32 2
  %29 = load i32, ptr %28, align 8
  %30 = icmp sgt i32 %26, %29
  br i1 %30, label %31, label %35

31:                                               ; preds = %20
  %32 = load ptr, ptr %3, align 8
  %33 = getelementptr inbounds nuw %struct.HashInstrumentation, ptr %32, i32 0, i32 1
  %34 = load i32, ptr %33, align 4
  br label %39

35:                                               ; preds = %20
  %36 = load ptr, ptr %4, align 8
  %37 = getelementptr inbounds nuw %struct.HashJoinTableData, ptr %36, i32 0, i32 2
  %38 = load i32, ptr %37, align 8
  br label %39

39:                                               ; preds = %35, %31
  %40 = phi i32 [ %34, %31 ], [ %38, %35 ]
  %41 = load ptr, ptr %3, align 8
  %42 = getelementptr inbounds nuw %struct.HashInstrumentation, ptr %41, i32 0, i32 1
  store i32 %40, ptr %42, align 4
  %43 = load ptr, ptr %3, align 8
  %44 = getelementptr inbounds nuw %struct.HashInstrumentation, ptr %43, i32 0, i32 2
  %45 = load i32, ptr %44, align 8
  %46 = load ptr, ptr %4, align 8
  %47 = getelementptr inbounds nuw %struct.HashJoinTableData, ptr %46, i32 0, i32 11
  %48 = load i32, ptr %47, align 8
  %49 = icmp sgt i32 %45, %48
  br i1 %49, label %50, label %54

50:                                               ; preds = %39
  %51 = load ptr, ptr %3, align 8
  %52 = getelementptr inbounds nuw %struct.HashInstrumentation, ptr %51, i32 0, i32 2
  %53 = load i32, ptr %52, align 8
  br label %58

54:                                               ; preds = %39
  %55 = load ptr, ptr %4, align 8
  %56 = getelementptr inbounds nuw %struct.HashJoinTableData, ptr %55, i32 0, i32 11
  %57 = load i32, ptr %56, align 8
  br label %58

58:                                               ; preds = %54, %50
  %59 = phi i32 [ %53, %50 ], [ %57, %54 ]
  %60 = load ptr, ptr %3, align 8
  %61 = getelementptr inbounds nuw %struct.HashInstrumentation, ptr %60, i32 0, i32 2
  store i32 %59, ptr %61, align 8
  %62 = load ptr, ptr %3, align 8
  %63 = getelementptr inbounds nuw %struct.HashInstrumentation, ptr %62, i32 0, i32 3
  %64 = load i32, ptr %63, align 4
  %65 = load ptr, ptr %4, align 8
  %66 = getelementptr inbounds nuw %struct.HashJoinTableData, ptr %65, i32 0, i32 13
  %67 = load i32, ptr %66, align 8
  %68 = icmp sgt i32 %64, %67
  br i1 %68, label %69, label %73

69:                                               ; preds = %58
  %70 = load ptr, ptr %3, align 8
  %71 = getelementptr inbounds nuw %struct.HashInstrumentation, ptr %70, i32 0, i32 3
  %72 = load i32, ptr %71, align 4
  br label %77

73:                                               ; preds = %58
  %74 = load ptr, ptr %4, align 8
  %75 = getelementptr inbounds nuw %struct.HashJoinTableData, ptr %74, i32 0, i32 13
  %76 = load i32, ptr %75, align 8
  br label %77

77:                                               ; preds = %73, %69
  %78 = phi i32 [ %72, %69 ], [ %76, %73 ]
  %79 = load ptr, ptr %3, align 8
  %80 = getelementptr inbounds nuw %struct.HashInstrumentation, ptr %79, i32 0, i32 3
  store i32 %78, ptr %80, align 4
  %81 = load ptr, ptr %3, align 8
  %82 = getelementptr inbounds nuw %struct.HashInstrumentation, ptr %81, i32 0, i32 4
  %83 = load i64, ptr %82, align 8
  %84 = load ptr, ptr %4, align 8
  %85 = getelementptr inbounds nuw %struct.HashJoinTableData, ptr %84, i32 0, i32 23
  %86 = load i64, ptr %85, align 8
  %87 = icmp ugt i64 %83, %86
  br i1 %87, label %88, label %92

88:                                               ; preds = %77
  %89 = load ptr, ptr %3, align 8
  %90 = getelementptr inbounds nuw %struct.HashInstrumentation, ptr %89, i32 0, i32 4
  %91 = load i64, ptr %90, align 8
  br label %96

92:                                               ; preds = %77
  %93 = load ptr, ptr %4, align 8
  %94 = getelementptr inbounds nuw %struct.HashJoinTableData, ptr %93, i32 0, i32 23
  %95 = load i64, ptr %94, align 8
  br label %96

96:                                               ; preds = %92, %88
  %97 = phi i64 [ %91, %88 ], [ %95, %92 ]
  %98 = load ptr, ptr %3, align 8
  %99 = getelementptr inbounds nuw %struct.HashInstrumentation, ptr %98, i32 0, i32 4
  store i64 %97, ptr %99, align 8
  ret void
}

; Function Attrs: nounwind uwtable
define dso_local void @ExecShutdownHash(ptr noundef %0) #0 {
  %2 = alloca ptr, align 8
  store ptr %0, ptr %2, align 8
  %3 = load ptr, ptr %2, align 8
  %4 = getelementptr inbounds nuw %struct.HashState, ptr %3, i32 0, i32 0
  %5 = getelementptr inbounds nuw %struct.PlanState, ptr %4, i32 0, i32 5
  %6 = load ptr, ptr %5, align 8
  %7 = icmp ne ptr %6, null
  br i1 %7, label %8, label %17

8:                                                ; preds = %1
  %9 = load ptr, ptr %2, align 8
  %10 = getelementptr inbounds nuw %struct.HashState, ptr %9, i32 0, i32 6
  %11 = load ptr, ptr %10, align 8
  %12 = icmp ne ptr %11, null
  br i1 %12, label %17, label %13

13:                                               ; preds = %8
  %14 = call ptr @palloc0(i64 noundef 24)
  %15 = load ptr, ptr %2, align 8
  %16 = getelementptr inbounds nuw %struct.HashState, ptr %15, i32 0, i32 6
  store ptr %14, ptr %16, align 8
  br label %17

17:                                               ; preds = %13, %8, %1
  %18 = load ptr, ptr %2, align 8
  %19 = getelementptr inbounds nuw %struct.HashState, ptr %18, i32 0, i32 6
  %20 = load ptr, ptr %19, align 8
  %21 = icmp ne ptr %20, null
  br i1 %21, label %22, label %34

22:                                               ; preds = %17
  %23 = load ptr, ptr %2, align 8
  %24 = getelementptr inbounds nuw %struct.HashState, ptr %23, i32 0, i32 1
  %25 = load ptr, ptr %24, align 8
  %26 = icmp ne ptr %25, null
  br i1 %26, label %27, label %34

27:                                               ; preds = %22
  %28 = load ptr, ptr %2, align 8
  %29 = getelementptr inbounds nuw %struct.HashState, ptr %28, i32 0, i32 6
  %30 = load ptr, ptr %29, align 8
  %31 = load ptr, ptr %2, align 8
  %32 = getelementptr inbounds nuw %struct.HashState, ptr %31, i32 0, i32 1
  %33 = load ptr, ptr %32, align 8
  call void @ExecHashAccumInstrumentation(ptr noundef %30, ptr noundef %33)
  br label %34

34:                                               ; preds = %27, %22, %17
  ret void
}