; Function Attrs: nounwind uwtable
define dso_local void @ExecShutdownHash(ptr noundef captures(none) %0) local_unnamed_addr #0 {
  %2 = getelementptr inbounds nuw i8, ptr %0, i64 40
  %3 = load ptr, ptr %2, align 8
  %.not = icmp eq ptr %3, null
  %.phi.trans.insert = getelementptr inbounds nuw i8, ptr %0, i64 240
  %.pre = load ptr, ptr %.phi.trans.insert, align 8
  br i1 %.not, label %._crit_edge, label %4

4:                                                ; preds = %1
  %.not8 = icmp eq ptr %.pre, null
  br i1 %.not8, label %5, label %.thread

5:                                                ; preds = %4
  %6 = tail call ptr @palloc0(i64 noundef 24) #16
  store ptr %6, ptr %.phi.trans.insert, align 8
  br label %._crit_edge

._crit_edge:                                      ; preds = %1, %5
  %7 = phi ptr [ %6, %5 ], [ %.pre, %1 ]
  %.not9 = icmp eq ptr %7, null
  br i1 %.not9, label %34, label %.thread

.thread:                                          ; preds = %4, %._crit_edge
  %8 = phi ptr [ %7, %._crit_edge ], [ %.pre, %4 ]
  %9 = getelementptr inbounds nuw i8, ptr %0, i64 200
  %10 = load ptr, ptr %9, align 8
  %.not10 = icmp eq ptr %10, null
  br i1 %.not10, label %34, label %11

11:                                               ; preds = %.thread
  %12 = load i32, ptr %8, align 8
  %13 = load i32, ptr %10, align 8
  %..i = tail call i32 @llvm.smax.i32(i32 %12, i32 %13)
  store i32 %..i, ptr %8, align 8
  %14 = getelementptr inbounds nuw i8, ptr %8, i64 4
  %15 = load i32, ptr %14, align 4
  %16 = getelementptr inbounds nuw i8, ptr %10, i64 8
  %17 = load i32, ptr %16, align 8
  %18 = tail call i32 @llvm.smax.i32(i32 %15, i32 %17)
  store i32 %18, ptr %14, align 4
  %19 = getelementptr inbounds nuw i8, ptr %8, i64 8
  %20 = load i32, ptr %19, align 8
  %21 = getelementptr inbounds nuw i8, ptr %10, i64 64
  %22 = load i32, ptr %21, align 8
  %23 = tail call i32 @llvm.smax.i32(i32 %20, i32 %22)
  store i32 %23, ptr %19, align 8
  %24 = getelementptr inbounds nuw i8, ptr %8, i64 12
  %25 = load i32, ptr %24, align 4
  %26 = getelementptr inbounds nuw i8, ptr %10, i64 72
  %27 = load i32, ptr %26, align 8
  %28 = tail call i32 @llvm.smax.i32(i32 %25, i32 %27)
  store i32 %28, ptr %24, align 4
  %29 = getelementptr inbounds nuw i8, ptr %8, i64 16
  %30 = load i64, ptr %29, align 8
  %31 = getelementptr inbounds nuw i8, ptr %10, i64 144
  %32 = load i64, ptr %31, align 8
  %33 = tail call i64 @llvm.umax.i64(i64 %30, i64 %32)
  store i64 %33, ptr %29, align 8
  br label %34

34:                                               ; preds = %11, %.thread, %._crit_edge
  ret void
}